target datalayout = "e-m:e-p270:32:32-p271:32:32-p272:64:64-i64:64-i128:128-f80:128-n8:16:32:64-S128"
target triple = "x86_64-pc-linux-gnu"

%struct.lean_string_object = type { %struct.lean_object, i64, i64, i64, [0 x i8] }
%struct.lean_object = type { i32, i32 }

@.str.27 = private unnamed_addr constant [45 x i8] c"Error: invalid `String.Pos` at `String.get!`\00", align 1

; Function Attrs: inlinehint mustprogress nounwind uwtable
define internal void @_ZL18lean_set_st_headerP11lean_objectjj(ptr noundef %0, i32 noundef %1, i32 noundef %2) #9 {
  %4 = alloca ptr, align 8
  %5 = alloca i32, align 4
  %6 = alloca i32, align 4
  store ptr %0, ptr %4, align 8, !tbaa !3
  store i32 %1, ptr %5, align 4, !tbaa !19
  store i32 %2, ptr %6, align 4, !tbaa !19
  %7 = load ptr, ptr %4, align 8, !tbaa !3
  %8 = getelementptr inbounds nuw %struct.lean_object, ptr %7, i32 0, i32 0
  store i32 1, ptr %8, align 4, !tbaa !31
  %9 = load i32, ptr %5, align 4, !tbaa !19
  %10 = load ptr, ptr %4, align 8, !tbaa !3
  %11 = getelementptr inbounds nuw %struct.lean_object, ptr %10, i32 0, i32 1
  %12 = load i32, ptr %11, align 4
  %13 = and i32 %9, 255
  %14 = shl i32 %13, 24
  %15 = and i32 %12, 16777215
  %16 = or i32 %15, %14
  store i32 %16, ptr %11, align 4
  %17 = load i32, ptr %6, align 4, !tbaa !19
  %18 = load ptr, ptr %4, align 8, !tbaa !3
  %19 = getelementptr inbounds nuw %struct.lean_object, ptr %18, i32 0, i32 1
  %20 = load i32, ptr %19, align 4
  %21 = and i32 %17, 255
  %22 = shl i32 %21, 16
  %23 = and i32 %20, -16711681
  %24 = or i32 %23, %22
  store i32 %24, ptr %19, align 4
  ret void
}

; Function Attrs: mustprogress uwtable
define ptr @lean_alloc_object(i64 noundef %0) #0 {
  %2 = alloca i64, align 8
  %3 = alloca ptr, align 8
  %4 = alloca ptr, align 8
  store i64 %0, ptr %2, align 8, !tbaa !7
  call void @llvm.lifetime.start.p0(i64 8, ptr %3) #23
  %5 = load i64, ptr %2, align 8, !tbaa !7
  %6 = call noalias ptr @mi_malloc(i64 noundef %5) #23
  store ptr %6, ptr %3, align 8, !tbaa !3
  %7 = load ptr, ptr %3, align 8, !tbaa !3
  %8 = icmp eq ptr %7, null
  br i1 %8, label %9, label %10

9:                                                ; preds = %1
  call void @lean_internal_panic_out_of_memory() #25
  unreachable

10:                                               ; preds = %1
  call void @llvm.lifetime.start.p0(i64 8, ptr %4) #23
  %11 = load ptr, ptr %3, align 8, !tbaa !3
  store ptr %11, ptr %4, align 8, !tbaa !3
  %12 = load ptr, ptr %4, align 8, !tbaa !3
  %13 = getelementptr inbounds nuw %struct.lean_object, ptr %12, i32 0, i32 1
  %14 = load i32, ptr %13, align 4
  %15 = and i32 %14, -65536
  %16 = or i32 %15, 0
  store i32 %16, ptr %13, align 4
  %17 = load ptr, ptr %4, align 8, !tbaa !3
  call void @llvm.lifetime.end.p0(i64 8, ptr %4) #23
  call void @llvm.lifetime.end.p0(i64 8, ptr %3) #23
  ret ptr %17
}

; Function Attrs: alwaysinline mustprogress uwtable
define internal void @_ZL12lean_dec_refP11lean_object(ptr noundef %0) #8 {
  %2 = alloca ptr, align 8
  store ptr %0, ptr %2, align 8, !tbaa !3
  %3 = load ptr, ptr %2, align 8, !tbaa !3
  %4 = getelementptr inbounds nuw %struct.lean_object, ptr %3, i32 0, i32 0
  %5 = load i32, ptr %4, align 4, !tbaa !31
  %6 = icmp sgt i32 %5, 1
  %7 = zext i1 %6 to i64
  %8 = call i64 @llvm.expect.i64(i64 %7, i64 1)
  %9 = icmp ne i64 %8, 0
  br i1 %9, label %10, label %15

10:                                               ; preds = %1
  %11 = load ptr, ptr %2, align 8, !tbaa !3
  %12 = getelementptr inbounds nuw %struct.lean_object, ptr %11, i32 0, i32 0
  %13 = load i32, ptr %12, align 4, !tbaa !31
  %14 = add nsw i32 %13, -1
  store i32 %14, ptr %12, align 4, !tbaa !31
  br label %23

15:                                               ; preds = %1
  %16 = load ptr, ptr %2, align 8, !tbaa !3
  %17 = getelementptr inbounds nuw %struct.lean_object, ptr %16, i32 0, i32 0
  %18 = load i32, ptr %17, align 4, !tbaa !31
  %19 = icmp ne i32 %18, 0
  br i1 %19, label %20, label %22

20:                                               ; preds = %15
  %21 = load ptr, ptr %2, align 8, !tbaa !3
  call void @lean_dec_ref_cold(ptr noundef %21)
  br label %22

22:                                               ; preds = %20, %15
  br label %23

23:                                               ; preds = %22, %10
  ret void
}

; Function Attrs: inlinehint mustprogress uwtable
define internal noundef ptr @_ZN4leanL13w_string_cstrEP11lean_object(ptr noundef %0) #3 {
  %2 = alloca ptr, align 8
  store ptr %0, ptr %2, align 8, !tbaa !3
  %3 = load ptr, ptr %2, align 8, !tbaa !3
  %4 = call noundef ptr @_ZL14lean_to_stringP11lean_object(ptr noundef %3)
  %5 = getelementptr inbounds nuw %struct.lean_string_object, ptr %4, i32 0, i32 4
  %6 = getelementptr inbounds [0 x i8], ptr %5, i64 0, i64 0
  ret ptr %6
}

; Function Attrs: inlinehint mustprogress uwtable
define internal noundef ptr @_ZL17lean_alloc_stringmmm(i64 noundef %0, i64 noundef %1, i64 noundef %2) #3 {
  %4 = alloca i64, align 8
  %5 = alloca i64, align 8
  %6 = alloca i64, align 8
  %7 = alloca ptr, align 8
  store i64 %0, ptr %4, align 8, !tbaa !7
  store i64 %1, ptr %5, align 8, !tbaa !7
  store i64 %2, ptr %6, align 8, !tbaa !7
  call void @llvm.lifetime.start.p0(i64 8, ptr %7) #23
  %8 = load i64, ptr %5, align 8, !tbaa !7
  %9 = add i64 32, %8
  %10 = call ptr @lean_alloc_object(i64 noundef %9)
  store ptr %10, ptr %7, align 8, !tbaa !3
  %11 = load ptr, ptr %7, align 8, !tbaa !3
  call void @_ZL18lean_set_st_headerP11lean_objectjj(ptr noundef %11, i32 noundef 249, i32 noundef 0)
  %12 = load i64, ptr %4, align 8, !tbaa !7
  %13 = load ptr, ptr %7, align 8, !tbaa !3
  %14 = getelementptr inbounds nuw %struct.lean_string_object, ptr %13, i32 0, i32 1
  store i64 %12, ptr %14, align 8, !tbaa !7
  %15 = load i64, ptr %5, align 8, !tbaa !7
  %16 = load ptr, ptr %7, align 8, !tbaa !3
  %17 = getelementptr inbounds nuw %struct.lean_string_object, ptr %16, i32 0, i32 2
  store i64 %15, ptr %17, align 8, !tbaa !7
  %18 = load i64, ptr %6, align 8, !tbaa !7
  %19 = load ptr, ptr %7, align 8, !tbaa !3
  %20 = getelementptr inbounds nuw %struct.lean_string_object, ptr %19, i32 0, i32 3
  store i64 %18, ptr %20, align 8, !tbaa !7
  %21 = load ptr, ptr %7, align 8, !tbaa !3
  call void @llvm.lifetime.end.p0(i64 8, ptr %7) #23
  ret ptr %21
}

; Function Attrs: alwaysinline mustprogress uwtable
define internal void @_ZL8lean_decP11lean_object(ptr noundef %0) #8 {
  %2 = alloca ptr, align 8
  store ptr %0, ptr %2, align 8, !tbaa !3
  %3 = load ptr, ptr %2, align 8, !tbaa !3
  %4 = call noundef zeroext i1 @_ZL14lean_is_scalarP11lean_object(ptr noundef %3)
  br i1 %4, label %7, label %5

5:                                                ; preds = %1
  %6 = load ptr, ptr %2, align 8, !tbaa !3
  call void @_ZL12lean_dec_refP11lean_object(ptr noundef %6)
  br label %7

7:                                                ; preds = %5, %1
  ret void
}

; Function Attrs: mustprogress uwtable
define ptr @lean_mk_string_unchecked(ptr noundef %0, i64 noundef %1, i64 noundef %2) #0 {
  %4 = alloca ptr, align 8
  %5 = alloca i64, align 8
  %6 = alloca i64, align 8
  %7 = alloca i64, align 8
  %8 = alloca ptr, align 8
  store ptr %0, ptr %4, align 8, !tbaa !9
  store i64 %1, ptr %5, align 8, !tbaa !7
  store i64 %2, ptr %6, align 8, !tbaa !7
  call void @llvm.lifetime.start.p0(i64 8, ptr %7) #23
  %9 = load i64, ptr %5, align 8, !tbaa !7
  %10 = add i64 %9, 1
  store i64 %10, ptr %7, align 8, !tbaa !7
  call void @llvm.lifetime.start.p0(i64 8, ptr %8) #23
  %11 = load i64, ptr %7, align 8, !tbaa !7
  %12 = load i64, ptr %7, align 8, !tbaa !7
  %13 = load i64, ptr %6, align 8, !tbaa !7
  %14 = call noundef ptr @_ZL17lean_alloc_stringmmm(i64 noundef %11, i64 noundef %12, i64 noundef %13)
  store ptr %14, ptr %8, align 8, !tbaa !3
  %15 = load ptr, ptr %8, align 8, !tbaa !3
  %16 = call noundef ptr @_ZN4leanL13w_string_cstrEP11lean_object(ptr noundef %15)
  %17 = load ptr, ptr %4, align 8, !tbaa !9
  %18 = load i64, ptr %5, align 8, !tbaa !7
  call void @llvm.memcpy.p0.p0.i64(ptr align 1 %16, ptr align 1 %17, i64 %18, i1 false)
  %19 = load ptr, ptr %8, align 8, !tbaa !3
  %20 = call noundef ptr @_ZN4leanL13w_string_cstrEP11lean_object(ptr noundef %19)
  %21 = load i64, ptr %5, align 8, !tbaa !7
  %22 = getelementptr inbounds nuw i8, ptr %20, i64 %21
  store i8 0, ptr %22, align 1, !tbaa !26
  %23 = load ptr, ptr %8, align 8, !tbaa !3
  call void @llvm.lifetime.end.p0(i64 8, ptr %8) #23
  call void @llvm.lifetime.end.p0(i64 8, ptr %7) #23
  ret ptr %23
}

; Function Attrs: inlinehint mustprogress nounwind uwtable
define internal noundef ptr @_ZL14lean_to_stringP11lean_object(ptr noundef %0) #9 {
  %2 = alloca ptr, align 8
  store ptr %0, ptr %2, align 8, !tbaa !3
  %3 = load ptr, ptr %2, align 8, !tbaa !3
  ret ptr %3
}

; Function Attrs: inlinehint mustprogress nounwind uwtable
define internal noundef i32 @_ZL23lean_char_default_valuev() #9 {
  ret i32 65
}

; Function Attrs: mustprogress uwtable
define ptr @lean_panic_fn(ptr noundef %0, ptr noundef %1) #0 {
  %3 = alloca ptr, align 8
  %4 = alloca ptr, align 8
  store ptr %0, ptr %3, align 8, !tbaa !3
  store ptr %1, ptr %4, align 8, !tbaa !3
  %5 = load ptr, ptr %4, align 8, !tbaa !3
  %6 = call noundef ptr @_ZL16lean_string_cstrP11lean_object(ptr noundef %5)
  call void @lean_panic(ptr noundef %6, i1 noundef zeroext false)
  %7 = load ptr, ptr %4, align 8, !tbaa !3
  call void @_ZL8lean_decP11lean_object(ptr noundef %7)
  %8 = load ptr, ptr %3, align 8, !tbaa !3
  ret ptr %8
}

; Function Attrs: mustprogress uwtable
define ptr @lean_mk_ascii_string_unchecked(ptr noundef %0) #0 {
  %2 = alloca ptr, align 8
  %3 = alloca i64, align 8
  store ptr %0, ptr %2, align 8, !tbaa !9
  call void @llvm.lifetime.start.p0(i64 8, ptr %3) #23
  %4 = load ptr, ptr %2, align 8, !tbaa !9
  %5 = call i64 @strlen(ptr noundef %4) #26
  store i64 %5, ptr %3, align 8, !tbaa !7
  %6 = load ptr, ptr %2, align 8, !tbaa !9
  %7 = load i64, ptr %3, align 8, !tbaa !7
  %8 = load i64, ptr %3, align 8, !tbaa !7
  %9 = call ptr @lean_mk_string_unchecked(ptr noundef %6, i64 noundef %7, i64 noundef %8)
  call void @llvm.lifetime.end.p0(i64 8, ptr %3) #23
  ret ptr %9
}

; Function Attrs: inlinehint mustprogress nounwind uwtable
define internal noundef ptr @_ZL8lean_boxm(i64 noundef %0) #9 {
  %2 = alloca i64, align 8
  store i64 %0, ptr %2, align 8, !tbaa !7
  %3 = load i64, ptr %2, align 8, !tbaa !7
  %4 = shl i64 %3, 1
  %5 = or i64 %4, 1
  %6 = inttoptr i64 %5 to ptr
  ret ptr %6
}

; Function Attrs: inlinehint mustprogress uwtable
define internal noundef i64 @_ZL16lean_string_sizeP11lean_object(ptr noundef %0) #3 {
  %2 = alloca ptr, align 8
  store ptr %0, ptr %2, align 8, !tbaa !3
  %3 = load ptr, ptr %2, align 8, !tbaa !3
  %4 = call noundef ptr @_ZL14lean_to_stringP11lean_object(ptr noundef %3)
  %5 = getelementptr inbounds nuw %struct.lean_string_object, ptr %4, i32 0, i32 1
  %6 = load i64, ptr %5, align 8, !tbaa !7
  ret i64 %6
}

; Function Attrs: inlinehint mustprogress uwtable
define internal noundef ptr @_ZL16lean_string_cstrP11lean_object(ptr noundef %0) #3 {
  %2 = alloca ptr, align 8
  store ptr %0, ptr %2, align 8, !tbaa !3
  %3 = load ptr, ptr %2, align 8, !tbaa !3
  %4 = call noundef ptr @_ZL14lean_to_stringP11lean_object(ptr noundef %3)
  %5 = getelementptr inbounds nuw %struct.lean_string_object, ptr %4, i32 0, i32 4
  %6 = getelementptr inbounds [0 x i8], ptr %5, i64 0, i64 0
  ret ptr %6
}

; Function Attrs: inlinehint mustprogress nounwind uwtable
define internal noundef i64 @_ZL10lean_unboxP11lean_object(ptr noundef %0) #9 {
  %2 = alloca ptr, align 8
  store ptr %0, ptr %2, align 8, !tbaa !3
  %3 = load ptr, ptr %2, align 8, !tbaa !3
  %4 = ptrtoint ptr %3 to i64
  %5 = lshr i64 %4, 1
  ret i64 %5
}

; Function Attrs: mustprogress uwtable
define internal noundef i32 @_ZN4leanL26lean_string_utf8_get_panicEv() #0 {
  %1 = call noundef ptr @_ZL8lean_boxm(i64 noundef 0)
  %2 = call ptr @lean_mk_ascii_string_unchecked(ptr noundef @.str.27)
  %3 = call ptr @lean_panic_fn(ptr noundef %1, ptr noundef %2)
  %4 = call noundef i32 @_ZL23lean_char_default_valuev()
  ret i32 %4
}

; Function Attrs: alwaysinline mustprogress nounwind uwtable
define internal noundef zeroext i1 @_ZL14lean_is_scalarP11lean_object(ptr noundef %0) #11 {
  %2 = alloca ptr, align 8
  store ptr %0, ptr %2, align 8, !tbaa !3
  %3 = load ptr, ptr %2, align 8, !tbaa !3
  %4 = ptrtoint ptr %3 to i64
  %5 = and i64 %4, 1
  %6 = icmp eq i64 %5, 1
  ret i1 %6
}

; Function Attrs: mustprogress uwtable
define i32 @lean_string_utf8_get_bang(ptr noundef %0, ptr noundef %1) #0 {
  %3 = alloca i32, align 4
  %4 = alloca ptr, align 8
  %5 = alloca ptr, align 8
  %6 = alloca i64, align 8
  %7 = alloca ptr, align 8
  %8 = alloca i64, align 8
  %9 = alloca i32, align 4
  %10 = alloca i32, align 4
  store ptr %0, ptr %4, align 8, !tbaa !3
  store ptr %1, ptr %5, align 8, !tbaa !3
  %11 = load ptr, ptr %5, align 8, !tbaa !3
  %12 = call noundef zeroext i1 @_ZL14lean_is_scalarP11lean_object(ptr noundef %11)
  br i1 %12, label %15, label %13

13:                                               ; preds = %2
  %14 = call noundef i32 @_ZN4leanL26lean_string_utf8_get_panicEv()
  store i32 %14, ptr %3, align 4
  br label %41

15:                                               ; preds = %2
  call void @llvm.lifetime.start.p0(i64 8, ptr %6) #23
  %16 = load ptr, ptr %5, align 8, !tbaa !3
  %17 = call noundef i64 @_ZL10lean_unboxP11lean_object(ptr noundef %16)
  store i64 %17, ptr %6, align 8, !tbaa !7
  call void @llvm.lifetime.start.p0(i64 8, ptr %7) #23
  %18 = load ptr, ptr %4, align 8, !tbaa !3
  %19 = call noundef ptr @_ZL16lean_string_cstrP11lean_object(ptr noundef %18)
  store ptr %19, ptr %7, align 8, !tbaa !9
  call void @llvm.lifetime.start.p0(i64 8, ptr %8) #23
  %20 = load ptr, ptr %4, align 8, !tbaa !3
  %21 = call noundef i64 @_ZL16lean_string_sizeP11lean_object(ptr noundef %20)
  %22 = sub i64 %21, 1
  store i64 %22, ptr %8, align 8, !tbaa !7
  %23 = load i64, ptr %6, align 8, !tbaa !7
  %24 = load ptr, ptr %4, align 8, !tbaa !3
  %25 = call noundef i64 @_ZL16lean_string_sizeP11lean_object(ptr noundef %24)
  %26 = sub i64 %25, 1
  %27 = icmp uge i64 %23, %26
  br i1 %27, label %28, label %30

28:                                               ; preds = %15
  %29 = call noundef i32 @_ZN4leanL26lean_string_utf8_get_panicEv()
  store i32 %29, ptr %3, align 4
  store i32 1, ptr %9, align 4
  br label %40

30:                                               ; preds = %15
  call void @llvm.lifetime.start.p0(i64 4, ptr %10) #23
  %31 = load ptr, ptr %7, align 8, !tbaa !9
  %32 = load i64, ptr %8, align 8, !tbaa !7
  %33 = load i64, ptr %6, align 8, !tbaa !7
  %34 = call noundef zeroext i1 @_ZN4leanL25lean_string_utf8_get_coreEPKcmmRj(ptr noundef %31, i64 noundef %32, i64 noundef %33, ptr noundef nonnull align 4 dereferenceable(4) %10)
  br i1 %34, label %35, label %37

35:                                               ; preds = %30
  %36 = load i32, ptr %10, align 4, !tbaa !19
  store i32 %36, ptr %3, align 4
  store i32 1, ptr %9, align 4
  br label %39

37:                                               ; preds = %30
  %38 = call noundef i32 @_ZN4leanL26lean_string_utf8_get_panicEv()
  store i32 %38, ptr %3, align 4
  store i32 1, ptr %9, align 4
  br label %39

39:                                               ; preds = %37, %35
  call void @llvm.lifetime.end.p0(i64 4, ptr %10) #23
  br label %40

40:                                               ; preds = %39, %28
  call void @llvm.lifetime.end.p0(i64 8, ptr %8) #23
  call void @llvm.lifetime.end.p0(i64 8, ptr %7) #23
  call void @llvm.lifetime.end.p0(i64 8, ptr %6) #23
  br label %41

41:                                               ; preds = %40, %13
  %42 = load i32, ptr %3, align 4
  ret i32 %42
}