; Function Attrs: mustprogress uwtable
define i32 @lean_string_utf8_get_bang(ptr noundef readonly captures(none) %0, ptr noundef %1) local_unnamed_addr #0 {
  %3 = alloca i32, align 4
  %4 = ptrtoint ptr %1 to i64
  %5 = and i64 %4, 1
  %.not19 = icmp eq i64 %5, 0
  br i1 %.not19, label %6, label %25

6:                                                ; preds = %2
  %7 = tail call noalias ptr @mi_malloc(i64 noundef 77) #40
  %8 = icmp eq ptr %7, null
  br i1 %8, label %9, label %lean_mk_ascii_string_unchecked.exit.i

9:                                                ; preds = %6
  tail call void @lean_internal_panic_out_of_memory() #43
  unreachable

lean_mk_ascii_string_unchecked.exit.i:            ; preds = %6
  %10 = getelementptr inbounds nuw i8, ptr %7, i64 4
  store i32 1, ptr %7, align 4, !tbaa !23
  store i32 -117440512, ptr %10, align 4
  %11 = getelementptr inbounds nuw i8, ptr %7, i64 8
  store i64 45, ptr %11, align 8, !tbaa !30
  %12 = getelementptr inbounds nuw i8, ptr %7, i64 16
  store i64 45, ptr %12, align 8, !tbaa !30
  %13 = getelementptr inbounds nuw i8, ptr %7, i64 24
  store i64 44, ptr %13, align 8, !tbaa !30
  %14 = getelementptr inbounds nuw i8, ptr %7, i64 32
  tail call void @llvm.memcpy.p0.p0.i64(ptr noundef nonnull align 1 dereferenceable(44) %14, ptr noundef nonnull readonly align 1 dereferenceable(44) @.str.27, i64 44, i1 false)
  %15 = getelementptr inbounds nuw i8, ptr %7, i64 76
  store i8 0, ptr %15, align 1, !tbaa !57
  tail call void @lean_panic(ptr noundef nonnull %14, i1 noundef zeroext false)
  %16 = ptrtoint ptr %7 to i64
  %17 = and i64 %16, 1
  %.not.i.i = icmp eq i64 %17, 0
  br i1 %.not.i.i, label %18, label %_ZN4leanL26lean_string_utf8_get_panicEv.exit

18:                                               ; preds = %lean_mk_ascii_string_unchecked.exit.i
  %19 = load i32, ptr %7, align 4, !tbaa !23
  %20 = icmp sgt i32 %19, 1
  br i1 %20, label %21, label %23, !prof !25

21:                                               ; preds = %18
  %22 = add nsw i32 %19, -1
  store i32 %22, ptr %7, align 4, !tbaa !23
  br label %_ZN4leanL26lean_string_utf8_get_panicEv.exit

23:                                               ; preds = %18
  %.not.i.i.i = icmp eq i32 %19, 0
  br i1 %.not.i.i.i, label %_ZN4leanL26lean_string_utf8_get_panicEv.exit, label %24

24:                                               ; preds = %23
  tail call void @lean_dec_ref_cold(ptr noundef nonnull %7)
  br label %_ZN4leanL26lean_string_utf8_get_panicEv.exit

25:                                               ; preds = %2
  %26 = lshr i64 %4, 1
  %27 = getelementptr i8, ptr %0, i64 8
  %.val10 = load i64, ptr %27, align 8, !tbaa !30
  %28 = add i64 %.val10, -1
  %.not = icmp ult i64 %26, %28
  br i1 %.not, label %48, label %29

29:                                               ; preds = %25
  %30 = tail call noalias ptr @mi_malloc(i64 noundef 77) #40
  %31 = icmp eq ptr %30, null
  br i1 %31, label %32, label %lean_mk_ascii_string_unchecked.exit.i11

32:                                               ; preds = %29
  tail call void @lean_internal_panic_out_of_memory() #43
  unreachable

lean_mk_ascii_string_unchecked.exit.i11:          ; preds = %29
  %33 = getelementptr inbounds nuw i8, ptr %30, i64 4
  store i32 1, ptr %30, align 4, !tbaa !23
  store i32 -117440512, ptr %33, align 4
  %34 = getelementptr inbounds nuw i8, ptr %30, i64 8
  store i64 45, ptr %34, align 8, !tbaa !30
  %35 = getelementptr inbounds nuw i8, ptr %30, i64 16
  store i64 45, ptr %35, align 8, !tbaa !30
  %36 = getelementptr inbounds nuw i8, ptr %30, i64 24
  store i64 44, ptr %36, align 8, !tbaa !30
  %37 = getelementptr inbounds nuw i8, ptr %30, i64 32
  tail call void @llvm.memcpy.p0.p0.i64(ptr noundef nonnull align 1 dereferenceable(44) %37, ptr noundef nonnull readonly align 1 dereferenceable(44) @.str.27, i64 44, i1 false)
  %38 = getelementptr inbounds nuw i8, ptr %30, i64 76
  store i8 0, ptr %38, align 1, !tbaa !57
  tail call void @lean_panic(ptr noundef nonnull %37, i1 noundef zeroext false)
  %39 = ptrtoint ptr %30 to i64
  %40 = and i64 %39, 1
  %.not.i.i12 = icmp eq i64 %40, 0
  br i1 %.not.i.i12, label %41, label %_ZN4leanL26lean_string_utf8_get_panicEv.exit

41:                                               ; preds = %lean_mk_ascii_string_unchecked.exit.i11
  %42 = load i32, ptr %30, align 4, !tbaa !23
  %43 = icmp sgt i32 %42, 1
  br i1 %43, label %44, label %46, !prof !25

44:                                               ; preds = %41
  %45 = add nsw i32 %42, -1
  store i32 %45, ptr %30, align 4, !tbaa !23
  br label %_ZN4leanL26lean_string_utf8_get_panicEv.exit

46:                                               ; preds = %41
  %.not.i.i.i13 = icmp eq i32 %42, 0
  br i1 %.not.i.i.i13, label %_ZN4leanL26lean_string_utf8_get_panicEv.exit, label %47

47:                                               ; preds = %46
  tail call void @lean_dec_ref_cold(ptr noundef nonnull %30)
  br label %_ZN4leanL26lean_string_utf8_get_panicEv.exit

48:                                               ; preds = %25
  %49 = getelementptr inbounds nuw i8, ptr %0, i64 32
  call void @llvm.lifetime.start.p0(i64 4, ptr nonnull %3) #40
  %50 = call fastcc noundef zeroext i1 @_ZN4leanL25lean_string_utf8_get_coreEPKcmmRj(ptr noundef nonnull %49, i64 noundef %28, i64 noundef %26, ptr noundef nonnull align 4 dereferenceable(4) %3)
  br i1 %50, label %51, label %53

51:                                               ; preds = %48
  %52 = load i32, ptr %3, align 4, !tbaa !156
  br label %_ZN4leanL26lean_string_utf8_get_panicEv.exit18

53:                                               ; preds = %48
  %54 = tail call noalias ptr @mi_malloc(i64 noundef 77) #40
  %55 = icmp eq ptr %54, null
  br i1 %55, label %56, label %lean_mk_ascii_string_unchecked.exit.i15

56:                                               ; preds = %53
  tail call void @lean_internal_panic_out_of_memory() #43
  unreachable

lean_mk_ascii_string_unchecked.exit.i15:          ; preds = %53
  %57 = getelementptr inbounds nuw i8, ptr %54, i64 4
  store i32 1, ptr %54, align 4, !tbaa !23
  store i32 -117440512, ptr %57, align 4
  %58 = getelementptr inbounds nuw i8, ptr %54, i64 8
  store i64 45, ptr %58, align 8, !tbaa !30
  %59 = getelementptr inbounds nuw i8, ptr %54, i64 16
  store i64 45, ptr %59, align 8, !tbaa !30
  %60 = getelementptr inbounds nuw i8, ptr %54, i64 24
  store i64 44, ptr %60, align 8, !tbaa !30
  %61 = getelementptr inbounds nuw i8, ptr %54, i64 32
  tail call void @llvm.memcpy.p0.p0.i64(ptr noundef nonnull align 1 dereferenceable(44) %61, ptr noundef nonnull readonly align 1 dereferenceable(44) @.str.27, i64 44, i1 false)
  %62 = getelementptr inbounds nuw i8, ptr %54, i64 76
  store i8 0, ptr %62, align 1, !tbaa !57
  tail call void @lean_panic(ptr noundef nonnull %61, i1 noundef zeroext false)
  %63 = ptrtoint ptr %54 to i64
  %64 = and i64 %63, 1
  %.not.i.i16 = icmp eq i64 %64, 0
  br i1 %.not.i.i16, label %65, label %_ZN4leanL26lean_string_utf8_get_panicEv.exit18

65:                                               ; preds = %lean_mk_ascii_string_unchecked.exit.i15
  %66 = load i32, ptr %54, align 4, !tbaa !23
  %67 = icmp sgt i32 %66, 1
  br i1 %67, label %68, label %70, !prof !25

68:                                               ; preds = %65
  %69 = add nsw i32 %66, -1
  store i32 %69, ptr %54, align 4, !tbaa !23
  br label %_ZN4leanL26lean_string_utf8_get_panicEv.exit18

70:                                               ; preds = %65
  %.not.i.i.i17 = icmp eq i32 %66, 0
  br i1 %.not.i.i.i17, label %_ZN4leanL26lean_string_utf8_get_panicEv.exit18, label %71

71:                                               ; preds = %70
  tail call void @lean_dec_ref_cold(ptr noundef nonnull %54)
  br label %_ZN4leanL26lean_string_utf8_get_panicEv.exit18

_ZN4leanL26lean_string_utf8_get_panicEv.exit18:   ; preds = %71, %70, %68, %lean_mk_ascii_string_unchecked.exit.i15, %51
  %.2 = phi i32 [ %52, %51 ], [ 65, %lean_mk_ascii_string_unchecked.exit.i15 ], [ 65, %68 ], [ 65, %70 ], [ 65, %71 ]
  call void @llvm.lifetime.end.p0(i64 4, ptr nonnull %3) #40
  br label %_ZN4leanL26lean_string_utf8_get_panicEv.exit

_ZN4leanL26lean_string_utf8_get_panicEv.exit:     ; preds = %47, %46, %44, %lean_mk_ascii_string_unchecked.exit.i11, %24, %23, %21, %lean_mk_ascii_string_unchecked.exit.i, %_ZN4leanL26lean_string_utf8_get_panicEv.exit18
  %.0 = phi i32 [ %.2, %_ZN4leanL26lean_string_utf8_get_panicEv.exit18 ], [ 65, %lean_mk_ascii_string_unchecked.exit.i ], [ 65, %21 ], [ 65, %23 ], [ 65, %24 ], [ 65, %lean_mk_ascii_string_unchecked.exit.i11 ], [ 65, %44 ], [ 65, %46 ], [ 65, %47 ]
  ret i32 %.0
}